; Function Attrs: nounwind uwtable
define ptr @l_Lean_Elab_Tactic_evalGrindCore___lambda__2___boxed(ptr noundef %0, ptr noundef %1, ptr noundef %2, ptr noundef %3, ptr noundef %4, ptr noundef %5, ptr noundef %6, ptr noundef %7, ptr noundef %8, ptr noundef %9, ptr noundef %10, ptr noundef %11, ptr noundef %12, ptr noundef %13) local_unnamed_addr #0 {
  %15 = ptrtoint ptr %1 to i64
  %16 = and i64 %15, 1
  %.not = icmp eq i64 %16, 0
  br i1 %.not, label %17, label %lean_dec.exit17

17:                                               ; preds = %14
  %18 = load i32, ptr %1, align 4, !tbaa !8
  %19 = icmp sgt i32 %18, 1
  br i1 %19, label %20, label %22, !prof !11

20:                                               ; preds = %17
  %21 = add nsw i32 %18, -1
  store i32 %21, ptr %1, align 4, !tbaa !8
  br label %lean_dec.exit17

22:                                               ; preds = %17
  %.not.i = icmp eq i32 %18, 0
  br i1 %.not.i, label %lean_dec.exit17, label %23

23:                                               ; preds = %22
  tail call void @lean_dec_ref_cold(ptr noundef nonnull %1) #5
  br label %lean_dec.exit17

lean_dec.exit17:                                  ; preds = %23, %22, %20, %14
  tail call void @lean_inc_heartbeat() #5
  %24 = tail call noalias ptr @mi_malloc_small(i64 noundef 56) #5
  %25 = icmp eq ptr %24, null
  br i1 %25, label %26, label %l_Lean_Elab_Tactic_evalGrindCore___lambda__2.exit

26:                                               ; preds = %lean_dec.exit17
  tail call void @lean_internal_panic_out_of_memory() #6
  unreachable

l_Lean_Elab_Tactic_evalGrindCore___lambda__2.exit: ; preds = %lean_dec.exit17
  %27 = and i64 %15, 510
  %28 = or disjoint i64 %27, 1
  %29 = inttoptr i64 %28 to ptr
  %30 = getelementptr inbounds nuw i8, ptr %24, i64 4
  store i32 1, ptr %24, align 4, !tbaa !8
  store i32 -184549320, ptr %30, align 4
  %31 = getelementptr inbounds nuw i8, ptr %24, i64 8
  store ptr @l_Lean_Elab_Tactic_evalGrindCore___lambda__1___boxed, ptr %31, align 8, !tbaa !4
  %32 = getelementptr inbounds nuw i8, ptr %24, i64 16
  store i16 13, ptr %32, align 8, !tbaa !16
  %33 = getelementptr inbounds nuw i8, ptr %24, i64 18
  store i16 4, ptr %33, align 2, !tbaa !16
  %34 = getelementptr inbounds nuw i8, ptr %24, i64 24
  store ptr %0, ptr %34, align 8, !tbaa !4
  %35 = getelementptr inbounds nuw i8, ptr %24, i64 32
  store ptr %29, ptr %35, align 8, !tbaa !4
  %36 = getelementptr inbounds nuw i8, ptr %24, i64 40
  store ptr %2, ptr %36, align 8, !tbaa !4
  %37 = getelementptr inbounds nuw i8, ptr %24, i64 48
  store ptr %3, ptr %37, align 8, !tbaa !4
  %38 = tail call ptr @l_Lean_Elab_Tactic_withMainContext___rarg(ptr noundef nonnull %24, ptr noundef %5, ptr noundef %6, ptr noundef %7, ptr noundef %8, ptr noundef %9, ptr noundef %10, ptr noundef %11, ptr noundef %12, ptr noundef %13) #5
  %39 = ptrtoint ptr %4 to i64
  %40 = and i64 %39, 1
  %.not20 = icmp eq i64 %40, 0
  br i1 %.not20, label %41, label %lean_dec.exit

41:                                               ; preds = %l_Lean_Elab_Tactic_evalGrindCore___lambda__2.exit
  %42 = load i32, ptr %4, align 4, !tbaa !8
  %43 = icmp sgt i32 %42, 1
  br i1 %43, label %44, label %46, !prof !11

44:                                               ; preds = %41
  %45 = add nsw i32 %42, -1
  store i32 %45, ptr %4, align 4, !tbaa !8
  br label %lean_dec.exit

46:                                               ; preds = %41
  %.not.i18 = icmp eq i32 %42, 0
  br i1 %.not.i18, label %lean_dec.exit, label %47

47:                                               ; preds = %46
  tail call void @lean_dec_ref_cold(ptr noundef nonnull %4) #5
  br label %lean_dec.exit

lean_dec.exit:                                    ; preds = %47, %46, %44, %l_Lean_Elab_Tactic_evalGrindCore___lambda__2.exit
  ret ptr %38
}